
GccApplication12.elf:     file format elf32-avr

Sections:
Idx Name          Size      VMA       LMA       File off  Algn
  0 .text         000003d8  00000000  00000000  00000074  2**1
                  CONTENTS, ALLOC, LOAD, READONLY, CODE
  1 .data         00000000  00800060  00800060  0000044c  2**0
                  CONTENTS, ALLOC, LOAD, DATA
  2 .bss          0000000c  00800060  00800060  0000044c  2**0
                  ALLOC
  3 .comment      00000030  00000000  00000000  0000044c  2**0
                  CONTENTS, READONLY
  4 .note.gnu.avr.deviceinfo 0000003c  00000000  00000000  0000047c  2**2
                  CONTENTS, READONLY
  5 .debug_aranges 00000028  00000000  00000000  000004b8  2**0
                  CONTENTS, READONLY, DEBUGGING
  6 .debug_info   0000069b  00000000  00000000  000004e0  2**0
                  CONTENTS, READONLY, DEBUGGING
  7 .debug_abbrev 000005af  00000000  00000000  00000b7b  2**0
                  CONTENTS, READONLY, DEBUGGING
  8 .debug_line   00000482  00000000  00000000  0000112a  2**0
                  CONTENTS, READONLY, DEBUGGING
  9 .debug_frame  00000034  00000000  00000000  000015ac  2**2
                  CONTENTS, READONLY, DEBUGGING
 10 .debug_str    00000353  00000000  00000000  000015e0  2**0
                  CONTENTS, READONLY, DEBUGGING
 11 .debug_loc    00000048  00000000  00000000  00001933  2**0
                  CONTENTS, READONLY, DEBUGGING
 12 .debug_ranges 00000018  00000000  00000000  0000197b  2**0
                  CONTENTS, READONLY, DEBUGGING

Disassembly of section .text:

00000000 <__vectors>:
   0:	0c 94 2a 00 	jmp	0x54	; 0x54 <__ctors_end>
   4:	0c 94 3c 00 	jmp	0x78	; 0x78 <__bad_interrupt>
   8:	0c 94 3c 00 	jmp	0x78	; 0x78 <__bad_interrupt>
   c:	0c 94 3c 00 	jmp	0x78	; 0x78 <__bad_interrupt>
  10:	0c 94 3c 00 	jmp	0x78	; 0x78 <__bad_interrupt>
  14:	0c 94 3c 00 	jmp	0x78	; 0x78 <__bad_interrupt>
  18:	0c 94 3c 00 	jmp	0x78	; 0x78 <__bad_interrupt>
  1c:	0c 94 3c 00 	jmp	0x78	; 0x78 <__bad_interrupt>
  20:	0c 94 3c 00 	jmp	0x78	; 0x78 <__bad_interrupt>
  24:	0c 94 3c 00 	jmp	0x78	; 0x78 <__bad_interrupt>
  28:	0c 94 3c 00 	jmp	0x78	; 0x78 <__bad_interrupt>
  2c:	0c 94 3c 00 	jmp	0x78	; 0x78 <__bad_interrupt>
  30:	0c 94 3c 00 	jmp	0x78	; 0x78 <__bad_interrupt>
  34:	0c 94 3c 00 	jmp	0x78	; 0x78 <__bad_interrupt>
  38:	0c 94 3c 00 	jmp	0x78	; 0x78 <__bad_interrupt>
  3c:	0c 94 3c 00 	jmp	0x78	; 0x78 <__bad_interrupt>
  40:	0c 94 3c 00 	jmp	0x78	; 0x78 <__bad_interrupt>
  44:	0c 94 3c 00 	jmp	0x78	; 0x78 <__bad_interrupt>
  48:	0c 94 3c 00 	jmp	0x78	; 0x78 <__bad_interrupt>
  4c:	0c 94 3c 00 	jmp	0x78	; 0x78 <__bad_interrupt>
  50:	0c 94 3c 00 	jmp	0x78	; 0x78 <__bad_interrupt>

00000054 <__ctors_end>:
  54:	11 24       	eor	r1, r1
  56:	1f be       	out	0x3f, r1	; 63
  58:	cf e5       	ldi	r28, 0x5F	; 95
  5a:	d8 e0       	ldi	r29, 0x08	; 8
  5c:	de bf       	out	0x3e, r29	; 62
  5e:	cd bf       	out	0x3d, r28	; 61

00000060 <__do_clear_bss>:
  60:	20 e0       	ldi	r18, 0x00	; 0
  62:	a0 e6       	ldi	r26, 0x60	; 96
  64:	b0 e0       	ldi	r27, 0x00	; 0
  66:	01 c0       	rjmp	.+2      	; 0x6a <.do_clear_bss_start>

00000068 <.do_clear_bss_loop>:
  68:	1d 92       	st	X+, r1

0000006a <.do_clear_bss_start>:
  6a:	ac 36       	cpi	r26, 0x6C	; 108
  6c:	b2 07       	cpc	r27, r18
  6e:	e1 f7       	brne	.-8      	; 0x68 <.do_clear_bss_loop>
  70:	0e 94 71 00 	call	0xe2	; 0xe2 <main>
  74:	0c 94 ea 01 	jmp	0x3d4	; 0x3d4 <_exit>

00000078 <__bad_interrupt>:
  78:	0c 94 00 00 	jmp	0	; 0x0 <__vectors>

0000007c <get_ir_state>:
#include <avr/sfr_defs.h>
#include <util/delay.h>
int ir1,ir2,ir3,ir4,ir5;
int count = 0;
void get_ir_state(){
	ir1 = bit_is_clear(PIND,3);
  7c:	90 b3       	in	r25, 0x10	; 16
  7e:	96 95       	lsr	r25
  80:	96 95       	lsr	r25
  82:	96 95       	lsr	r25
  84:	81 e0       	ldi	r24, 0x01	; 1
  86:	98 27       	eor	r25, r24
  88:	91 70       	andi	r25, 0x01	; 1
  8a:	90 93 6a 00 	sts	0x006A, r25	; 0x80006a <ir1>
  8e:	10 92 6b 00 	sts	0x006B, r1	; 0x80006b <ir1+0x1>
	ir2 = bit_is_clear(PIND,4);
  92:	90 b3       	in	r25, 0x10	; 16
  94:	92 95       	swap	r25
  96:	9f 70       	andi	r25, 0x0F	; 15
  98:	98 27       	eor	r25, r24
  9a:	91 70       	andi	r25, 0x01	; 1
  9c:	90 93 68 00 	sts	0x0068, r25	; 0x800068 <ir2>
  a0:	10 92 69 00 	sts	0x0069, r1	; 0x800069 <ir2+0x1>
	ir3 = bit_is_clear(PIND,5);
  a4:	90 b3       	in	r25, 0x10	; 16
  a6:	92 95       	swap	r25
  a8:	96 95       	lsr	r25
  aa:	97 70       	andi	r25, 0x07	; 7
  ac:	98 27       	eor	r25, r24
  ae:	91 70       	andi	r25, 0x01	; 1
  b0:	90 93 64 00 	sts	0x0064, r25	; 0x800064 <ir3>
  b4:	10 92 65 00 	sts	0x0065, r1	; 0x800065 <ir3+0x1>
	ir4 = bit_is_clear(PIND,2);
  b8:	90 b3       	in	r25, 0x10	; 16
  ba:	96 95       	lsr	r25
  bc:	96 95       	lsr	r25
  be:	98 27       	eor	r25, r24
  c0:	91 70       	andi	r25, 0x01	; 1
  c2:	90 93 62 00 	sts	0x0062, r25	; 0x800062 <ir4>
  c6:	10 92 63 00 	sts	0x0063, r1	; 0x800063 <ir4+0x1>
	ir5 = bit_is_clear(PIND,6);
  ca:	90 b3       	in	r25, 0x10	; 16
  cc:	92 95       	swap	r25
  ce:	96 95       	lsr	r25
  d0:	96 95       	lsr	r25
  d2:	93 70       	andi	r25, 0x03	; 3
  d4:	89 27       	eor	r24, r25
  d6:	81 70       	andi	r24, 0x01	; 1
  d8:	80 93 66 00 	sts	0x0066, r24	; 0x800066 <ir5>
  dc:	10 92 67 00 	sts	0x0067, r1	; 0x800067 <ir5+0x1>
  e0:	08 95       	ret

000000e2 <main>:
	
}

int main()
{
	DDRA = 0xFF;
  e2:	8f ef       	ldi	r24, 0xFF	; 255
  e4:	8a bb       	out	0x1a, r24	; 26
	DDRD = 0x00;
  e6:	11 ba       	out	0x11, r1	; 17
			
			if(ir1 == 0 && ir2 == 1 && ir3 == 1)
			PORTA = 0b00100000;
			
			if(ir1 == 1 && ir2 == 1 && ir3 == 1 && ir4 == 0 && ir5 == 0){
				PORTA = 0b10100000;
  e8:	10 ea       	ldi	r17, 0xA0	; 160
			
			if(ir1 == 1 && ir2 == 1 && ir3 == 0)
			PORTA = 0b10000000;
			
			if(ir1 == 0 && ir2 == 1 && ir3 == 1)
			PORTA = 0b00100000;
  ea:	d0 e2       	ldi	r29, 0x20	; 32
			if((ir1 == 0 && ir2 == 0 && ir3 == 1)){
				PORTA = 0b00100000;
			}
			
			if(ir1 == 1 && ir2 == 1 && ir3 == 0)
			PORTA = 0b10000000;
  ec:	c0 e8       	ldi	r28, 0x80	; 128
{
	DDRA = 0xFF;
	DDRD = 0x00;
	
	while(1){
			ir1 = ir2 = ir3 = ir4 = ir5 = 0;
  ee:	10 92 67 00 	sts	0x0067, r1	; 0x800067 <ir5+0x1>
  f2:	10 92 66 00 	sts	0x0066, r1	; 0x800066 <ir5>
  f6:	10 92 63 00 	sts	0x0063, r1	; 0x800063 <ir4+0x1>
  fa:	10 92 62 00 	sts	0x0062, r1	; 0x800062 <ir4>
  fe:	10 92 65 00 	sts	0x0065, r1	; 0x800065 <ir3+0x1>
 102:	10 92 64 00 	sts	0x0064, r1	; 0x800064 <ir3>
 106:	10 92 69 00 	sts	0x0069, r1	; 0x800069 <ir2+0x1>
 10a:	10 92 68 00 	sts	0x0068, r1	; 0x800068 <ir2>
 10e:	10 92 6b 00 	sts	0x006B, r1	; 0x80006b <ir1+0x1>
 112:	10 92 6a 00 	sts	0x006A, r1	; 0x80006a <ir1>
			
		get_ir_state();
 116:	0e 94 3e 00 	call	0x7c	; 0x7c <get_ir_state>
			
			
			if(ir1 == 0 && ir2 == 1 && ir3 == 0){
 11a:	80 91 6a 00 	lds	r24, 0x006A	; 0x80006a <ir1>
 11e:	90 91 6b 00 	lds	r25, 0x006B	; 0x80006b <ir1+0x1>
 122:	89 2b       	or	r24, r25
 124:	09 f0       	breq	.+2      	; 0x128 <main+0x46>
 126:	37 c1       	rjmp	.+622    	; 0x396 <main+0x2b4>
 128:	80 91 68 00 	lds	r24, 0x0068	; 0x800068 <ir2>
 12c:	90 91 69 00 	lds	r25, 0x0069	; 0x800069 <ir2+0x1>
 130:	01 97       	sbiw	r24, 0x01	; 1
 132:	09 f5       	brne	.+66     	; 0x176 <main+0x94>
 134:	80 91 64 00 	lds	r24, 0x0064	; 0x800064 <ir3>
 138:	90 91 65 00 	lds	r25, 0x0065	; 0x800065 <ir3+0x1>
 13c:	89 2b       	or	r24, r25
 13e:	d9 f4       	brne	.+54     	; 0x176 <main+0x94>
				PORTA = 0b10100000;
 140:	1b bb       	out	0x1b, r17	; 27
			}
			if((ir1 == 1 && ir2 == 0 && ir3 == 0)){
 142:	80 91 6a 00 	lds	r24, 0x006A	; 0x80006a <ir1>
 146:	90 91 6b 00 	lds	r25, 0x006B	; 0x80006b <ir1+0x1>
 14a:	01 97       	sbiw	r24, 0x01	; 1
 14c:	69 f4       	brne	.+26     	; 0x168 <main+0x86>
 14e:	80 91 68 00 	lds	r24, 0x0068	; 0x800068 <ir2>
 152:	90 91 69 00 	lds	r25, 0x0069	; 0x800069 <ir2+0x1>
 156:	89 2b       	or	r24, r25
 158:	19 f5       	brne	.+70     	; 0x1a0 <main+0xbe>
 15a:	80 91 64 00 	lds	r24, 0x0064	; 0x800064 <ir3>
 15e:	90 91 65 00 	lds	r25, 0x0065	; 0x800065 <ir3+0x1>
 162:	89 2b       	or	r24, r25
 164:	e9 f4       	brne	.+58     	; 0x1a0 <main+0xbe>
				PORTA = 0b10000000;
 166:	cb bb       	out	0x1b, r28	; 27
			}
			if((ir1 == 0 && ir2 == 0 && ir3 == 1)){
 168:	80 91 6a 00 	lds	r24, 0x006A	; 0x80006a <ir1>
 16c:	90 91 6b 00 	lds	r25, 0x006B	; 0x80006b <ir1+0x1>
 170:	00 97       	sbiw	r24, 0x00	; 0
 172:	09 f0       	breq	.+2      	; 0x176 <main+0x94>
 174:	07 c1       	rjmp	.+526    	; 0x384 <main+0x2a2>
 176:	80 91 68 00 	lds	r24, 0x0068	; 0x800068 <ir2>
 17a:	90 91 69 00 	lds	r25, 0x0069	; 0x800069 <ir2+0x1>
 17e:	89 2b       	or	r24, r25
 180:	19 f5       	brne	.+70     	; 0x1c8 <main+0xe6>
 182:	80 91 64 00 	lds	r24, 0x0064	; 0x800064 <ir3>
 186:	90 91 65 00 	lds	r25, 0x0065	; 0x800065 <ir3+0x1>
 18a:	01 97       	sbiw	r24, 0x01	; 1
 18c:	e9 f4       	brne	.+58     	; 0x1c8 <main+0xe6>
				PORTA = 0b00100000;
 18e:	db bb       	out	0x1b, r29	; 27
			}
			
			if(ir1 == 1 && ir2 == 1 && ir3 == 0)
 190:	80 91 6a 00 	lds	r24, 0x006A	; 0x80006a <ir1>
 194:	90 91 6b 00 	lds	r25, 0x006B	; 0x80006b <ir1+0x1>
 198:	01 97       	sbiw	r24, 0x01	; 1
 19a:	09 f0       	breq	.+2      	; 0x19e <main+0xbc>
 19c:	0b c1       	rjmp	.+534    	; 0x3b4 <main+0x2d2>
 19e:	02 c1       	rjmp	.+516    	; 0x3a4 <main+0x2c2>
 1a0:	80 91 68 00 	lds	r24, 0x0068	; 0x800068 <ir2>
 1a4:	90 91 69 00 	lds	r25, 0x0069	; 0x800069 <ir2+0x1>
 1a8:	01 97       	sbiw	r24, 0x01	; 1
 1aa:	e9 f4       	brne	.+58     	; 0x1e6 <main+0x104>
 1ac:	80 91 64 00 	lds	r24, 0x0064	; 0x800064 <ir3>
 1b0:	90 91 65 00 	lds	r25, 0x0065	; 0x800065 <ir3+0x1>
 1b4:	89 2b       	or	r24, r25
 1b6:	09 f0       	breq	.+2      	; 0x1ba <main+0xd8>
 1b8:	05 c1       	rjmp	.+522    	; 0x3c4 <main+0x2e2>
			PORTA = 0b10000000;
 1ba:	cb bb       	out	0x1b, r28	; 27
			
			if(ir1 == 0 && ir2 == 1 && ir3 == 1)
 1bc:	80 91 6a 00 	lds	r24, 0x006A	; 0x80006a <ir1>
 1c0:	90 91 6b 00 	lds	r25, 0x006B	; 0x80006b <ir1+0x1>
 1c4:	89 2b       	or	r24, r25
 1c6:	79 f4       	brne	.+30     	; 0x1e6 <main+0x104>
 1c8:	80 91 68 00 	lds	r24, 0x0068	; 0x800068 <ir2>
 1cc:	90 91 69 00 	lds	r25, 0x0069	; 0x800069 <ir2+0x1>
 1d0:	01 97       	sbiw	r24, 0x01	; 1
 1d2:	09 f0       	breq	.+2      	; 0x1d6 <main+0xf4>
 1d4:	8c cf       	rjmp	.-232    	; 0xee <main+0xc>
 1d6:	80 91 64 00 	lds	r24, 0x0064	; 0x800064 <ir3>
 1da:	90 91 65 00 	lds	r25, 0x0065	; 0x800065 <ir3+0x1>
 1de:	01 97       	sbiw	r24, 0x01	; 1
 1e0:	09 f0       	breq	.+2      	; 0x1e4 <main+0x102>
 1e2:	85 cf       	rjmp	.-246    	; 0xee <main+0xc>
			PORTA = 0b00100000;
 1e4:	db bb       	out	0x1b, r29	; 27
			
			if(ir1 == 1 && ir2 == 1 && ir3 == 1 && ir4 == 0 && ir5 == 0){
 1e6:	80 91 6a 00 	lds	r24, 0x006A	; 0x80006a <ir1>
 1ea:	90 91 6b 00 	lds	r25, 0x006B	; 0x80006b <ir1+0x1>
 1ee:	01 97       	sbiw	r24, 0x01	; 1
 1f0:	09 f0       	breq	.+2      	; 0x1f4 <main+0x112>
 1f2:	7d cf       	rjmp	.-262    	; 0xee <main+0xc>
 1f4:	80 91 68 00 	lds	r24, 0x0068	; 0x800068 <ir2>
 1f8:	90 91 69 00 	lds	r25, 0x0069	; 0x800069 <ir2+0x1>
 1fc:	01 97       	sbiw	r24, 0x01	; 1
 1fe:	09 f0       	breq	.+2      	; 0x202 <main+0x120>
 200:	76 cf       	rjmp	.-276    	; 0xee <main+0xc>
 202:	80 91 64 00 	lds	r24, 0x0064	; 0x800064 <ir3>
 206:	90 91 65 00 	lds	r25, 0x0065	; 0x800065 <ir3+0x1>
 20a:	01 97       	sbiw	r24, 0x01	; 1
 20c:	d9 f4       	brne	.+54     	; 0x244 <main+0x162>
 20e:	80 91 62 00 	lds	r24, 0x0062	; 0x800062 <ir4>
 212:	90 91 63 00 	lds	r25, 0x0063	; 0x800063 <ir4+0x1>
 216:	89 2b       	or	r24, r25
 218:	a9 f4       	brne	.+42     	; 0x244 <main+0x162>
 21a:	80 91 66 00 	lds	r24, 0x0066	; 0x800066 <ir5>
 21e:	90 91 67 00 	lds	r25, 0x0067	; 0x800067 <ir5+0x1>
 222:	89 2b       	or	r24, r25
 224:	79 f4       	brne	.+30     	; 0x244 <main+0x162>
				PORTA = 0b10100000;
 226:	1b bb       	out	0x1b, r17	; 27
			}
			if((ir1 == 1 && ir2 == 1 && ir3 == 1 && ir4==1 && ir5 ==1))
 228:	80 91 6a 00 	lds	r24, 0x006A	; 0x80006a <ir1>
 22c:	90 91 6b 00 	lds	r25, 0x006B	; 0x80006b <ir1+0x1>
 230:	01 97       	sbiw	r24, 0x01	; 1
 232:	09 f0       	breq	.+2      	; 0x236 <main+0x154>
 234:	5c cf       	rjmp	.-328    	; 0xee <main+0xc>
 236:	80 91 68 00 	lds	r24, 0x0068	; 0x800068 <ir2>
 23a:	90 91 69 00 	lds	r25, 0x0069	; 0x800069 <ir2+0x1>
 23e:	01 97       	sbiw	r24, 0x01	; 1
 240:	09 f0       	breq	.+2      	; 0x244 <main+0x162>
 242:	55 cf       	rjmp	.-342    	; 0xee <main+0xc>
 244:	80 91 64 00 	lds	r24, 0x0064	; 0x800064 <ir3>
 248:	90 91 65 00 	lds	r25, 0x0065	; 0x800065 <ir3+0x1>
 24c:	01 97       	sbiw	r24, 0x01	; 1
 24e:	09 f0       	breq	.+2      	; 0x252 <main+0x170>
 250:	4e cf       	rjmp	.-356    	; 0xee <main+0xc>
 252:	80 91 62 00 	lds	r24, 0x0062	; 0x800062 <ir4>
 256:	90 91 63 00 	lds	r25, 0x0063	; 0x800063 <ir4+0x1>
 25a:	01 97       	sbiw	r24, 0x01	; 1
 25c:	09 f0       	breq	.+2      	; 0x260 <main+0x17e>
 25e:	47 cf       	rjmp	.-370    	; 0xee <main+0xc>
 260:	80 91 66 00 	lds	r24, 0x0066	; 0x800066 <ir5>
 264:	90 91 67 00 	lds	r25, 0x0067	; 0x800067 <ir5+0x1>
 268:	01 97       	sbiw	r24, 0x01	; 1
 26a:	09 f0       	breq	.+2      	; 0x26e <main+0x18c>
 26c:	40 cf       	rjmp	.-384    	; 0xee <main+0xc>
			{	PORTA = 0x00;
 26e:	1b ba       	out	0x1b, r1	; 27
	#else
		//round up by default
		__ticks_dc = (uint32_t)(ceil(fabs(__tmp)));
	#endif

	__builtin_avr_delay_cycles(__ticks_dc);
 270:	2f eb       	ldi	r18, 0xBF	; 191
 272:	87 e2       	ldi	r24, 0x27	; 39
 274:	99 e0       	ldi	r25, 0x09	; 9
 276:	21 50       	subi	r18, 0x01	; 1
 278:	80 40       	sbci	r24, 0x00	; 0
 27a:	90 40       	sbci	r25, 0x00	; 0
 27c:	e1 f7       	brne	.-8      	; 0x276 <main+0x194>
 27e:	00 c0       	rjmp	.+0      	; 0x280 <main+0x19e>
 280:	00 00       	nop
				_delay_ms(3000);
				PORTA = 0b10100000;
 282:	80 ea       	ldi	r24, 0xA0	; 160
 284:	8b bb       	out	0x1b, r24	; 27
				count+=1;
 286:	80 91 60 00 	lds	r24, 0x0060	; 0x800060 <_edata>
 28a:	90 91 61 00 	lds	r25, 0x0061	; 0x800061 <_edata+0x1>
 28e:	01 96       	adiw	r24, 0x01	; 1
 290:	90 93 61 00 	sts	0x0061, r25	; 0x800061 <_edata+0x1>
 294:	80 93 60 00 	sts	0x0060, r24	; 0x800060 <_edata>
		if(ir1 == 0 && ir2 == 0 && ir3 == 1 && ir4 == 0 && ir5 == 0){
			PORTA = 0b10100000;
		}
		if(ir1  == 1 && ir2 == 1 && ir3 == 1 && ir4 == 1 && ir5 == 1){
			if(count == 1){
				PORTA  = 0b10100000;
 298:	c0 ea       	ldi	r28, 0xA0	; 160
	
	END : 
	while(1){
		
		
		get_ir_state();
 29a:	0e 94 3e 00 	call	0x7c	; 0x7c <get_ir_state>
		
		if(ir1 == 0 && ir2 == 0 && ir3 == 0 && ir4 == 0 && ir5 == 0){
 29e:	80 91 6a 00 	lds	r24, 0x006A	; 0x80006a <ir1>
 2a2:	90 91 6b 00 	lds	r25, 0x006B	; 0x80006b <ir1+0x1>
 2a6:	89 2b       	or	r24, r25
 2a8:	c1 f5       	brne	.+112    	; 0x31a <main+0x238>
 2aa:	80 91 68 00 	lds	r24, 0x0068	; 0x800068 <ir2>
 2ae:	90 91 69 00 	lds	r25, 0x0069	; 0x800069 <ir2+0x1>
 2b2:	89 2b       	or	r24, r25
 2b4:	91 f7       	brne	.-28     	; 0x29a <main+0x1b8>
 2b6:	80 91 64 00 	lds	r24, 0x0064	; 0x800064 <ir3>
 2ba:	90 91 65 00 	lds	r25, 0x0065	; 0x800065 <ir3+0x1>
 2be:	89 2b       	or	r24, r25
 2c0:	c9 f4       	brne	.+50     	; 0x2f4 <main+0x212>
 2c2:	80 91 62 00 	lds	r24, 0x0062	; 0x800062 <ir4>
 2c6:	90 91 63 00 	lds	r25, 0x0063	; 0x800063 <ir4+0x1>
 2ca:	89 2b       	or	r24, r25
 2cc:	99 f4       	brne	.+38     	; 0x2f4 <main+0x212>
 2ce:	80 91 66 00 	lds	r24, 0x0066	; 0x800066 <ir5>
 2d2:	90 91 67 00 	lds	r25, 0x0067	; 0x800067 <ir5+0x1>
 2d6:	89 2b       	or	r24, r25
 2d8:	69 f4       	brne	.+26     	; 0x2f4 <main+0x212>
			PORTA = 0b10100000;
 2da:	cb bb       	out	0x1b, r28	; 27
		}
		if(ir1 == 0 && ir2 == 0 && ir3 == 1 && ir4 == 0 && ir5 == 0){
 2dc:	80 91 6a 00 	lds	r24, 0x006A	; 0x80006a <ir1>
 2e0:	90 91 6b 00 	lds	r25, 0x006B	; 0x80006b <ir1+0x1>
 2e4:	89 2b       	or	r24, r25
 2e6:	c9 f4       	brne	.+50     	; 0x31a <main+0x238>
 2e8:	80 91 68 00 	lds	r24, 0x0068	; 0x800068 <ir2>
 2ec:	90 91 69 00 	lds	r25, 0x0069	; 0x800069 <ir2+0x1>
 2f0:	89 2b       	or	r24, r25
 2f2:	99 f6       	brne	.-90     	; 0x29a <main+0x1b8>
 2f4:	80 91 64 00 	lds	r24, 0x0064	; 0x800064 <ir3>
 2f8:	90 91 65 00 	lds	r25, 0x0065	; 0x800065 <ir3+0x1>
 2fc:	01 97       	sbiw	r24, 0x01	; 1
 2fe:	69 f6       	brne	.-102    	; 0x29a <main+0x1b8>
 300:	80 91 62 00 	lds	r24, 0x0062	; 0x800062 <ir4>
 304:	90 91 63 00 	lds	r25, 0x0063	; 0x800063 <ir4+0x1>
 308:	89 2b       	or	r24, r25
 30a:	39 f6       	brne	.-114    	; 0x29a <main+0x1b8>
 30c:	80 91 66 00 	lds	r24, 0x0066	; 0x800066 <ir5>
 310:	90 91 67 00 	lds	r25, 0x0067	; 0x800067 <ir5+0x1>
 314:	89 2b       	or	r24, r25
 316:	09 f6       	brne	.-126    	; 0x29a <main+0x1b8>
			PORTA = 0b10100000;
 318:	cb bb       	out	0x1b, r28	; 27
		}
		if(ir1  == 1 && ir2 == 1 && ir3 == 1 && ir4 == 1 && ir5 == 1){
 31a:	80 91 6a 00 	lds	r24, 0x006A	; 0x80006a <ir1>
 31e:	90 91 6b 00 	lds	r25, 0x006B	; 0x80006b <ir1+0x1>
 322:	01 97       	sbiw	r24, 0x01	; 1
 324:	09 f0       	breq	.+2      	; 0x328 <main+0x246>
 326:	b9 cf       	rjmp	.-142    	; 0x29a <main+0x1b8>
 328:	80 91 68 00 	lds	r24, 0x0068	; 0x800068 <ir2>
 32c:	90 91 69 00 	lds	r25, 0x0069	; 0x800069 <ir2+0x1>
 330:	01 97       	sbiw	r24, 0x01	; 1
 332:	09 f0       	breq	.+2      	; 0x336 <main+0x254>
 334:	b2 cf       	rjmp	.-156    	; 0x29a <main+0x1b8>
 336:	80 91 64 00 	lds	r24, 0x0064	; 0x800064 <ir3>
 33a:	90 91 65 00 	lds	r25, 0x0065	; 0x800065 <ir3+0x1>
 33e:	01 97       	sbiw	r24, 0x01	; 1
 340:	09 f0       	breq	.+2      	; 0x344 <main+0x262>
 342:	ab cf       	rjmp	.-170    	; 0x29a <main+0x1b8>
 344:	80 91 62 00 	lds	r24, 0x0062	; 0x800062 <ir4>
 348:	90 91 63 00 	lds	r25, 0x0063	; 0x800063 <ir4+0x1>
 34c:	01 97       	sbiw	r24, 0x01	; 1
 34e:	09 f0       	breq	.+2      	; 0x352 <main+0x270>
 350:	a4 cf       	rjmp	.-184    	; 0x29a <main+0x1b8>
 352:	80 91 66 00 	lds	r24, 0x0066	; 0x800066 <ir5>
 356:	90 91 67 00 	lds	r25, 0x0067	; 0x800067 <ir5+0x1>
 35a:	01 97       	sbiw	r24, 0x01	; 1
 35c:	09 f0       	breq	.+2      	; 0x360 <main+0x27e>
 35e:	9d cf       	rjmp	.-198    	; 0x29a <main+0x1b8>
			if(count == 1){
 360:	80 91 60 00 	lds	r24, 0x0060	; 0x800060 <_edata>
 364:	90 91 61 00 	lds	r25, 0x0061	; 0x800061 <_edata+0x1>
 368:	01 97       	sbiw	r24, 0x01	; 1
 36a:	51 f4       	brne	.+20     	; 0x380 <main+0x29e>
				PORTA  = 0b10100000;
 36c:	cb bb       	out	0x1b, r28	; 27
				count++;
 36e:	80 91 60 00 	lds	r24, 0x0060	; 0x800060 <_edata>
 372:	90 91 61 00 	lds	r25, 0x0061	; 0x800061 <_edata+0x1>
 376:	01 96       	adiw	r24, 0x01	; 1
 378:	90 93 61 00 	sts	0x0061, r25	; 0x800061 <_edata+0x1>
 37c:	80 93 60 00 	sts	0x0060, r24	; 0x800060 <_edata>
			}
			PORTA = 0x00;
 380:	1b ba       	out	0x1b, r1	; 27
 382:	8b cf       	rjmp	.-234    	; 0x29a <main+0x1b8>
			}
			if((ir1 == 0 && ir2 == 0 && ir3 == 1)){
				PORTA = 0b00100000;
			}
			
			if(ir1 == 1 && ir2 == 1 && ir3 == 0)
 384:	01 97       	sbiw	r24, 0x01	; 1
 386:	09 f0       	breq	.+2      	; 0x38a <main+0x2a8>
 388:	b2 ce       	rjmp	.-668    	; 0xee <main+0xc>
 38a:	0a cf       	rjmp	.-492    	; 0x1a0 <main+0xbe>
				PORTA = 0b10100000;
			}
			if((ir1 == 1 && ir2 == 0 && ir3 == 0)){
				PORTA = 0b10000000;
			}
			if((ir1 == 0 && ir2 == 0 && ir3 == 1)){
 38c:	80 91 6a 00 	lds	r24, 0x006A	; 0x80006a <ir1>
 390:	90 91 6b 00 	lds	r25, 0x006B	; 0x80006b <ir1+0x1>
 394:	f7 cf       	rjmp	.-18     	; 0x384 <main+0x2a2>
			
			
			if(ir1 == 0 && ir2 == 1 && ir3 == 0){
				PORTA = 0b10100000;
			}
			if((ir1 == 1 && ir2 == 0 && ir3 == 0)){
 396:	80 91 6a 00 	lds	r24, 0x006A	; 0x80006a <ir1>
 39a:	90 91 6b 00 	lds	r25, 0x006B	; 0x80006b <ir1+0x1>
 39e:	01 97       	sbiw	r24, 0x01	; 1
 3a0:	a9 f7       	brne	.-22     	; 0x38c <main+0x2aa>
 3a2:	d5 ce       	rjmp	.-598    	; 0x14e <main+0x6c>
			}
			if((ir1 == 0 && ir2 == 0 && ir3 == 1)){
				PORTA = 0b00100000;
			}
			
			if(ir1 == 1 && ir2 == 1 && ir3 == 0)
 3a4:	80 91 68 00 	lds	r24, 0x0068	; 0x800068 <ir2>
 3a8:	90 91 69 00 	lds	r25, 0x0069	; 0x800069 <ir2+0x1>
 3ac:	01 97       	sbiw	r24, 0x01	; 1
 3ae:	09 f0       	breq	.+2      	; 0x3b2 <main+0x2d0>
 3b0:	21 cf       	rjmp	.-446    	; 0x1f4 <main+0x112>
 3b2:	fc ce       	rjmp	.-520    	; 0x1ac <main+0xca>
			PORTA = 0b10000000;
			
			if(ir1 == 0 && ir2 == 1 && ir3 == 1)
 3b4:	80 91 6a 00 	lds	r24, 0x006A	; 0x80006a <ir1>
 3b8:	90 91 6b 00 	lds	r25, 0x006B	; 0x80006b <ir1+0x1>
 3bc:	89 2b       	or	r24, r25
 3be:	09 f0       	breq	.+2      	; 0x3c2 <main+0x2e0>
 3c0:	96 ce       	rjmp	.-724    	; 0xee <main+0xc>
 3c2:	02 cf       	rjmp	.-508    	; 0x1c8 <main+0xe6>
			PORTA = 0b00100000;
			
			if(ir1 == 1 && ir2 == 1 && ir3 == 1 && ir4 == 0 && ir5 == 0){
 3c4:	80 91 6a 00 	lds	r24, 0x006A	; 0x80006a <ir1>
 3c8:	90 91 6b 00 	lds	r25, 0x006B	; 0x80006b <ir1+0x1>
 3cc:	01 97       	sbiw	r24, 0x01	; 1
 3ce:	09 f4       	brne	.+2      	; 0x3d2 <main+0x2f0>
 3d0:	18 cf       	rjmp	.-464    	; 0x202 <main+0x120>
 3d2:	8d ce       	rjmp	.-742    	; 0xee <main+0xc>

000003d4 <_exit>:
 3d4:	f8 94       	cli

000003d6 <__stop_program>:
 3d6:	ff cf       	rjmp	.-2      	; 0x3d6 <__stop_program>
